---
triple:          'arm64-apple-darwin'
binary-path:     '/Users/mac/Desktop/cryptography-christof-lecture-in-cpp/bits_rotations'
relocations:
  - { offsetInCU: 0x2F17, offset: 0x2F17, size: 0x8, addend: 0x0, symName: __ZNSt3__123__copy_backward_alignedB7v160006INS_8__bitsetILm1ELm16EEELb0EEENS_14__bit_iteratorIT_Lb0EXLi0EEEENS3_IS4_XT0_EXLi0EEEES6_S5_, symObjAddr: 0x86C, symBinAddr: 0x100000F34, symSize: 0x288 }
  - { offsetInCU: 0x35F8, offset: 0x35F8, size: 0x8, addend: 0x0, symName: __ZNSt3__16copy_nB7v160006IPmmS1_EENS_9enable_ifIXsr33__is_cpp17_random_access_iteratorIT_EE5valueET1_E4typeES3_T0_S4_, symObjAddr: 0x1128, symBinAddr: 0x1000017F0, symSize: 0x44 }
  - { offsetInCU: 0x369F, offset: 0x369F, size: 0x8, addend: 0x0, symName: __ZNSt3__125__copy_backward_unalignedB7v160006INS_8__bitsetILm1ELm16EEELb0EEENS_14__bit_iteratorIT_Lb0EXLi0EEEENS3_IS4_XT0_EXLi0EEEES6_S5_, symObjAddr: 0xB28, symBinAddr: 0x1000011F0, symSize: 0x58C }
  - { offsetInCU: 0x381E, offset: 0x381E, size: 0x8, addend: 0x0, symName: __ZNSt3__113__fill_n_trueB7v160006INS_8__bitsetILm1ELm16EEEEEvNS_14__bit_iteratorIT_Lb0EXLi0EEEENS4_9size_typeE, symObjAddr: 0x1798, symBinAddr: 0x100001E60, symSize: 0x160 }
  - { offsetInCU: 0x38E3, offset: 0x38E3, size: 0x8, addend: 0x0, symName: __ZNSt3__114__fill_n_falseB7v160006INS_8__bitsetILm1ELm16EEEEEvNS_14__bit_iteratorIT_Lb0EXLi0EEEENS4_9size_typeE, symObjAddr: 0x18F8, symBinAddr: 0x100001FC0, symSize: 0x15C }
  - { offsetInCU: 0x39A8, offset: 0x39A8, size: 0x8, addend: 0x0, symName: __ZNSt3__114__copy_alignedB7v160006INS_8__bitsetILm1ELm16EEELb0EEENS_14__bit_iteratorIT_Lb0EXLi0EEEENS3_IS4_XT0_EXLi0EEEES6_S5_, symObjAddr: 0x1D80, symBinAddr: 0x100002448, symSize: 0x278 }
  - { offsetInCU: 0x3AD6, offset: 0x3AD6, size: 0x8, addend: 0x0, symName: __ZNSt3__116__copy_unalignedB7v160006INS_8__bitsetILm1ELm16EEELb0EEENS_14__bit_iteratorIT_Lb0EXLi0EEEENS3_IS4_XT0_EXLi0EEEES6_S5_, symObjAddr: 0x1FF8, symBinAddr: 0x1000026C0, symSize: 0x540 }
  - { offsetInCU: 0x3C54, offset: 0x3C54, size: 0x8, addend: 0x0, symName: __ZNSt3__124__put_character_sequenceB7v160006IcNS_11char_traitsIcEEEERNS_13basic_ostreamIT_T0_EES7_PKS4_m, symObjAddr: 0x2680, symBinAddr: 0x100002D48, symSize: 0x1EC }
  - { offsetInCU: 0x5956, offset: 0x5956, size: 0x8, addend: 0x0, symName: __ZNSt3__1orB7v160006ILm16EEENS_6bitsetIXT_EEERKS2_S4_, symObjAddr: 0x17C, symBinAddr: 0x100000844, symSize: 0x3C }
  - { offsetInCU: 0x59AC, offset: 0x59AC, size: 0x8, addend: 0x0, symName: __ZNSt3__14endlB7v160006IcNS_11char_traitsIcEEEERNS_13basic_ostreamIT_T0_EES7_, symObjAddr: 0x25C, symBinAddr: 0x100000924, symSize: 0x58 }
  - { offsetInCU: 0x59EC, offset: 0x59EC, size: 0x8, addend: 0x0, symName: __ZNSt3__1lsB7v160006IcNS_11char_traitsIcEELm16EEERNS_13basic_ostreamIT_T0_EES7_RKNS_6bitsetIXT1_EEE, symObjAddr: 0x2B4, symBinAddr: 0x10000097C, symSize: 0x158 }
  - { offsetInCU: 0x5A45, offset: 0x5A45, size: 0x8, addend: 0x0, symName: __ZNSt3__1lsB7v160006INS_11char_traitsIcEEEERNS_13basic_ostreamIcT_EES6_PKc, symObjAddr: 0x40C, symBinAddr: 0x100000AD4, symSize: 0x48 }
  - { offsetInCU: 0x5A8B, offset: 0x5A8B, size: 0x8, addend: 0x0, symName: __ZNSt3__13minB7v160006ImEERKT_S3_S3_, symObjAddr: 0x5D0, symBinAddr: 0x100000C98, symSize: 0x2C }
  - { offsetInCU: 0x5ACE, offset: 0x5ACE, size: 0x8, addend: 0x0, symName: __ZNSt3__113copy_backwardB7v160006INS_8__bitsetILm1ELm16EEELb0EEENS_14__bit_iteratorIT_Lb0EXLi0EEEENS3_IS4_XT0_EXLi0EEEES6_S5_, symObjAddr: 0x608, symBinAddr: 0x100000CD0, symSize: 0xE8 }
  - { offsetInCU: 0x5B30, offset: 0x5B30, size: 0x8, addend: 0x0, symName: __ZNSt3__16fill_nB7v160006INS_8__bitsetILm1ELm16EEEEEvNS_14__bit_iteratorIT_Lb0EXLi0EEEENS4_9size_typeEb, symObjAddr: 0x750, symBinAddr: 0x100000E18, symSize: 0x94 }
  - { offsetInCU: 0x5B82, offset: 0x5B82, size: 0x8, addend: 0x0, symName: __ZNSt3__13minB7v160006ImNS_6__lessImmEEEERKT_S5_S5_T0_, symObjAddr: 0x7E4, symBinAddr: 0x100000EAC, symSize: 0x54 }
  - { offsetInCU: 0x5C17, offset: 0x5C17, size: 0x8, addend: 0x0, symName: __ZNSt3__1miB7v160006ERKNS_14__bit_iteratorINS_8__bitsetILm1ELm16EEELb0ELm0EEES5_, symObjAddr: 0x10B4, symBinAddr: 0x10000177C, symSize: 0x48 }
  - { offsetInCU: 0x5C54, offset: 0x5C54, size: 0x8, addend: 0x0, symName: __ZNSt3__13minB7v160006IlEERKT_S3_S3_, symObjAddr: 0x10FC, symBinAddr: 0x1000017C4, symSize: 0x2C }
  - { offsetInCU: 0x5C97, offset: 0x5C97, size: 0x8, addend: 0x0, symName: __ZNSt3__112__to_addressB7v160006ImEEPT_S2_, symObjAddr: 0x116C, symBinAddr: 0x100001834, symSize: 0x14 }
  - { offsetInCU: 0x5CCC, offset: 0x5CCC, size: 0x8, addend: 0x0, symName: __ZNSt3__13minB7v160006IlNS_6__lessIllEEEERKT_S5_S5_T0_, symObjAddr: 0x1180, symBinAddr: 0x100001848, symSize: 0x54 }
  - { offsetInCU: 0x5D61, offset: 0x5D61, size: 0x8, addend: 0x0, symName: __ZNSt3__14copyB7v160006IPmS1_EET0_T_S3_S2_, symObjAddr: 0x1208, symBinAddr: 0x1000018D0, symSize: 0x40 }
  - { offsetInCU: 0x5DBB, offset: 0x5DBB, size: 0x8, addend: 0x0, symName: __ZNSt3__16__copyB7v160006INS_17_ClassicAlgPolicyEPmS2_S2_EENS_4pairIT0_T2_EES4_T1_S5_, symObjAddr: 0x1248, symBinAddr: 0x100001910, symSize: 0x44 }
  - { offsetInCU: 0x5E27, offset: 0x5E27, size: 0x8, addend: 0x0, symName: __ZNSt3__123__dispatch_copy_or_moveB7v160006INS_17_ClassicAlgPolicyENS_11__copy_loopIS1_EENS_14__copy_trivialEPmS5_S5_EENS_4pairIT2_T4_EES7_T3_S8_, symObjAddr: 0x128C, symBinAddr: 0x100001954, symSize: 0x44 }
  - { offsetInCU: 0x5EA5, offset: 0x5EA5, size: 0x8, addend: 0x0, symName: __ZNSt3__121__unwrap_and_dispatchB7v160006INS_10__overloadINS_11__copy_loopINS_17_ClassicAlgPolicyEEENS_14__copy_trivialEEEPmS7_S7_Li0EEENS_4pairIT0_T2_EES9_T1_SA_, symObjAddr: 0x12D0, symBinAddr: 0x100001998, symSize: 0xB4 }
  - { offsetInCU: 0x5F33, offset: 0x5F33, size: 0x8, addend: 0x0, symName: __ZNSt3__114__unwrap_rangeB7v160006IPmS1_EENS_4pairIT0_S3_EET_S5_, symObjAddr: 0x1384, symBinAddr: 0x100001A4C, symSize: 0x60 }
  - { offsetInCU: 0x60C8, offset: 0x60C8, size: 0x8, addend: 0x0, symName: __ZNSt3__113__unwrap_iterB7v160006IPmNS_18__unwrap_iter_implIS1_Lb1EEELi0EEEDTclsrT0_8__unwrapclsr3stdE7declvalIT_EEEES5_, symObjAddr: 0x142C, symBinAddr: 0x100001AF4, symSize: 0x24 }
  - { offsetInCU: 0x610C, offset: 0x610C, size: 0x8, addend: 0x0, symName: __ZNSt3__19make_pairB7v160006IPmS1_EENS_4pairINS_18__unwrap_ref_decayIT_E4typeENS3_IT0_E4typeEEEOS4_OS7_, symObjAddr: 0x1450, symBinAddr: 0x100001B18, symSize: 0x38 }
  - { offsetInCU: 0x615B, offset: 0x615B, size: 0x8, addend: 0x0, symName: __ZNSt3__114__rewrap_rangeB7v160006IPmS1_EET_S2_T0_, symObjAddr: 0x1488, symBinAddr: 0x100001B50, symSize: 0x2C }
  - { offsetInCU: 0x61A7, offset: 0x61A7, size: 0x8, addend: 0x0, symName: __ZNSt3__113__rewrap_iterB7v160006IPmS1_NS_18__unwrap_iter_implIS1_Lb1EEEEET_S4_T0_, symObjAddr: 0x14B4, symBinAddr: 0x100001B7C, symSize: 0x3C }
  - { offsetInCU: 0x61FC, offset: 0x61FC, size: 0x8, addend: 0x0, symName: __ZNSt3__119__copy_trivial_implB7v160006ImmEENS_4pairIPT_PT0_EES3_S3_S5_, symObjAddr: 0x14F0, symBinAddr: 0x100001BB8, symSize: 0x84 }
  - { offsetInCU: 0x6264, offset: 0x6264, size: 0x8, addend: 0x0, symName: __ZNSt3__19make_pairB7v160006IRPmS1_EENS_4pairINS_18__unwrap_ref_decayIT_E4typeENS4_IT0_E4typeEEEOS5_OS8_, symObjAddr: 0x1574, symBinAddr: 0x100001C3C, symSize: 0x38 }
  - { offsetInCU: 0x6306, offset: 0x6306, size: 0x8, addend: 0x0, symName: __ZNSt3__16fill_nB7v160006IPmmmEET_S2_T0_RKT1_, symObjAddr: 0x1A54, symBinAddr: 0x10000211C, symSize: 0x44 }
  - { offsetInCU: 0x6369, offset: 0x6369, size: 0x8, addend: 0x0, symName: __ZNSt3__18__fill_nB7v160006IPmmmEET_S2_T0_RKT1_, symObjAddr: 0x1A98, symBinAddr: 0x100002160, symSize: 0x64 }
  - { offsetInCU: 0x63CC, offset: 0x63CC, size: 0x8, addend: 0x0, symName: __ZNSt3__121__convert_to_integralB7v160006Em, symObjAddr: 0x1AFC, symBinAddr: 0x1000021C4, symSize: 0x14 }
  - { offsetInCU: 0x63F8, offset: 0x63F8, size: 0x8, addend: 0x0, symName: __ZNSt3__16fill_nB7v160006IPmmiEET_S2_T0_RKT1_, symObjAddr: 0x1B10, symBinAddr: 0x1000021D8, symSize: 0x44 }
  - { offsetInCU: 0x645B, offset: 0x645B, size: 0x8, addend: 0x0, symName: __ZNSt3__18__fill_nB7v160006IPmmiEET_S2_T0_RKT1_, symObjAddr: 0x1B54, symBinAddr: 0x10000221C, symSize: 0x64 }
  - { offsetInCU: 0x64BE, offset: 0x64BE, size: 0x8, addend: 0x0, symName: __ZNSt3__14copyB7v160006INS_8__bitsetILm1ELm16EEELb0EEENS_14__bit_iteratorIT_Lb0EXLi0EEEENS3_IS4_XT0_EXLi0EEEES6_S5_, symObjAddr: 0x1C98, symBinAddr: 0x100002360, symSize: 0xE8 }
  - { offsetInCU: 0x6520, offset: 0x6520, size: 0x8, addend: 0x0, symName: __ZNSt3__19use_facetB7v160006INS_5ctypeIcEEEERKT_RKNS_6localeE, symObjAddr: 0x261C, symBinAddr: 0x100002CE4, symSize: 0x2C }
  - { offsetInCU: 0x69EF, offset: 0x69EF, size: 0x8, addend: 0x0, symName: __ZNSt3__116__pad_and_outputB7v160006IcNS_11char_traitsIcEEEENS_19ostreambuf_iteratorIT_T0_EES6_PKS4_S8_S8_RNS_8ios_baseES4_, symObjAddr: 0x28BC, symBinAddr: 0x100002F84, symSize: 0x240 }
  - { offsetInCU: 0x6ABE, offset: 0x6ABE, size: 0x8, addend: 0x0, symName: __ZNSt3__119__debug_db_insert_cB7v160006INS_12basic_stringIcNS_11char_traitsIcEENS_9allocatorIcEEEEEEvPT_, symObjAddr: 0x2D70, symBinAddr: 0x100003438, symSize: 0x10 }
  - { offsetInCU: 0x6AEF, offset: 0x6AEF, size: 0x8, addend: 0x0, symName: __ZNSt3__112__to_addressB7v160006IKcEEPT_S3_, symObjAddr: 0x2E3C, symBinAddr: 0x100003504, symSize: 0x14 }
  - { offsetInCU: 0x6B57, offset: 0x6B57, size: 0x8, addend: 0x0, symName: __ZNSt3__118__constexpr_strlenB7v160006EPKc, symObjAddr: 0x306C, symBinAddr: 0x100003734, symSize: 0x24 }
  - { offsetInCU: 0x6B83, offset: 0x6B83, size: 0x8, addend: 0x0, symName: __ZNSt3__1lsB7v160006IcNS_11char_traitsIcEENS_9allocatorIcEEEERNS_13basic_ostreamIT_T0_EES9_RKNS_12basic_stringIS6_S7_T1_EE, symObjAddr: 0x3090, symBinAddr: 0x100003758, symSize: 0x4C }
  - { offsetInCU: 0x9200, offset: 0x9200, size: 0x8, addend: 0x0, symName: __Z10leftRotatets, symObjAddr: 0x0, symBinAddr: 0x1000006C8, symSize: 0x3C }
  - { offsetInCU: 0x923A, offset: 0x923A, size: 0x8, addend: 0x0, symName: _main, symObjAddr: 0x3C, symBinAddr: 0x100000704, symSize: 0xE0 }
  - { offsetInCU: 0x9289, offset: 0x9289, size: 0x8, addend: 0x0, symName: __ZNSt3__16bitsetILm16EEC1B7v160006Ey, symObjAddr: 0x11C, symBinAddr: 0x1000007E4, symSize: 0x34 }
  - { offsetInCU: 0x92C0, offset: 0x92C0, size: 0x8, addend: 0x0, symName: __ZNSt3__16bitsetILm16EEC1B7v160006Ev, symObjAddr: 0x150, symBinAddr: 0x100000818, symSize: 0x2C }
  - { offsetInCU: 0x92E8, offset: 0x92E8, size: 0x8, addend: 0x0, symName: __ZNKSt3__16bitsetILm16EElsB7v160006Em, symObjAddr: 0x1B8, symBinAddr: 0x100000880, symSize: 0x3C }
  - { offsetInCU: 0x932C, offset: 0x932C, size: 0x8, addend: 0x0, symName: __ZNKSt3__16bitsetILm16EErsB7v160006Em, symObjAddr: 0x1F4, symBinAddr: 0x1000008BC, symSize: 0x3C }
  - { offsetInCU: 0x9370, offset: 0x9370, size: 0x8, addend: 0x0, symName: __ZNSt3__113basic_ostreamIcNS_11char_traitsIcEEElsB7v160006EPFRS3_S4_E, symObjAddr: 0x230, symBinAddr: 0x1000008F8, symSize: 0x2C }
  - { offsetInCU: 0x93A2, offset: 0x93A2, size: 0x8, addend: 0x0, symName: __ZNSt3__16bitsetILm16EEC2B7v160006Ey, symObjAddr: 0x454, symBinAddr: 0x100000B1C, symSize: 0x34 }
  - { offsetInCU: 0x93D9, offset: 0x93D9, size: 0x8, addend: 0x0, symName: __ZNSt3__18__bitsetILm1ELm16EEC2Ey, symObjAddr: 0x488, symBinAddr: 0x100000B50, symSize: 0x20 }
  - { offsetInCU: 0x9412, offset: 0x9412, size: 0x8, addend: 0x0, symName: __ZNSt3__16bitsetILm16EEC2B7v160006Ev, symObjAddr: 0x4A8, symBinAddr: 0x100000B70, symSize: 0x2C }
  - { offsetInCU: 0x943A, offset: 0x943A, size: 0x8, addend: 0x0, symName: __ZNSt3__18__bitsetILm1ELm16EEC2Ev, symObjAddr: 0x4D4, symBinAddr: 0x100000B9C, symSize: 0x18 }
  - { offsetInCU: 0x9464, offset: 0x9464, size: 0x8, addend: 0x0, symName: __ZNSt3__16bitsetILm16EElSB7v160006Em, symObjAddr: 0x4EC, symBinAddr: 0x100000BB4, symSize: 0xE4 }
  - { offsetInCU: 0x9499, offset: 0x9499, size: 0x8, addend: 0x0, symName: __ZNSt3__18__bitsetILm1ELm16EE11__make_iterB7v160006Em, symObjAddr: 0x6F0, symBinAddr: 0x100000DB8, symSize: 0x60 }
  - { offsetInCU: 0x94E1, offset: 0x94E1, size: 0x8, addend: 0x0, symName: __ZNKSt3__16__lessImmEclB7v160006ERKmS3_, symObjAddr: 0x838, symBinAddr: 0x100000F00, symSize: 0x34 }
  - { offsetInCU: 0x9520, offset: 0x9520, size: 0x8, addend: 0x0, symName: __ZNSt3__114__bit_iteratorINS_8__bitsetILm1ELm16EEELb0ELm0EEC1B7v160006ERKS3_, symObjAddr: 0xAF4, symBinAddr: 0x1000011BC, symSize: 0x34 }
  - { offsetInCU: 0x956C, offset: 0x956C, size: 0x8, addend: 0x0, symName: __ZNKSt3__16__lessIllEclB7v160006ERKlS3_, symObjAddr: 0x11D4, symBinAddr: 0x10000189C, symSize: 0x34 }
  - { offsetInCU: 0x95CE, offset: 0x95CE, size: 0x8, addend: 0x0, symName: __ZNKSt3__114__copy_trivialclB7v160006ImmLi0EEENS_4pairIPT_PT0_EES4_S4_S6_, symObjAddr: 0x13E4, symBinAddr: 0x100001AAC, symSize: 0x48 }
  - { offsetInCU: 0x963E, offset: 0x963E, size: 0x8, addend: 0x0, symName: __ZNSt3__14pairIPmS1_EC1B7v160006IRS1_S1_LPv0EEEOT_OT0_, symObjAddr: 0x15AC, symBinAddr: 0x100001C74, symSize: 0x3C }
  - { offsetInCU: 0x969B, offset: 0x969B, size: 0x8, addend: 0x0, symName: __ZNSt3__14pairIPmS1_EC2B7v160006IRS1_S1_LPv0EEEOT_OT0_, symObjAddr: 0x15E8, symBinAddr: 0x100001CB0, symSize: 0x34 }
  - { offsetInCU: 0x96F8, offset: 0x96F8, size: 0x8, addend: 0x0, symName: __ZNSt3__118__unwrap_iter_implIPmLb1EE8__unwrapB7v160006ES1_, symObjAddr: 0x161C, symBinAddr: 0x100001CE4, symSize: 0x24 }
  - { offsetInCU: 0x971A, offset: 0x971A, size: 0x8, addend: 0x0, symName: __ZNSt3__14pairIPmS1_EC1B7v160006IS1_S1_LPv0EEEOT_OT0_, symObjAddr: 0x1640, symBinAddr: 0x100001D08, symSize: 0x3C }
  - { offsetInCU: 0x9777, offset: 0x9777, size: 0x8, addend: 0x0, symName: __ZNSt3__14pairIPmS1_EC2B7v160006IS1_S1_LPv0EEEOT_OT0_, symObjAddr: 0x167C, symBinAddr: 0x100001D44, symSize: 0x34 }
  - { offsetInCU: 0x97D4, offset: 0x97D4, size: 0x8, addend: 0x0, symName: __ZNSt3__118__unwrap_iter_implIPmLb1EE8__rewrapB7v160006ES1_S1_, symObjAddr: 0x16B0, symBinAddr: 0x100001D78, symSize: 0x50 }
  - { offsetInCU: 0x9805, offset: 0x9805, size: 0x8, addend: 0x0, symName: __ZNSt3__114__bit_iteratorINS_8__bitsetILm1ELm16EEELb0ELm0EEC2B7v160006ERKS3_, symObjAddr: 0x1700, symBinAddr: 0x100001DC8, symSize: 0x30 }
  - { offsetInCU: 0x983C, offset: 0x983C, size: 0x8, addend: 0x0, symName: __ZNSt3__114__bit_iteratorINS_8__bitsetILm1ELm16EEELb0ELm0EEC1B7v160006EPmj, symObjAddr: 0x1730, symBinAddr: 0x100001DF8, symSize: 0x3C }
  - { offsetInCU: 0x9883, offset: 0x9883, size: 0x8, addend: 0x0, symName: __ZNSt3__114__bit_iteratorINS_8__bitsetILm1ELm16EEELb0ELm0EEC2B7v160006EPmj, symObjAddr: 0x176C, symBinAddr: 0x100001E34, symSize: 0x2C }
  - { offsetInCU: 0x98C9, offset: 0x98C9, size: 0x8, addend: 0x0, symName: __ZNSt3__16bitsetILm16EErSB7v160006Em, symObjAddr: 0x1BB8, symBinAddr: 0x100002280, symSize: 0xE0 }
  - { offsetInCU: 0x98FE, offset: 0x98FE, size: 0x8, addend: 0x0, symName: __ZNSt3__16bitsetILm16EEoRB7v160006ERKS1_, symObjAddr: 0x2538, symBinAddr: 0x100002C00, symSize: 0x34 }
  - { offsetInCU: 0x9934, offset: 0x9934, size: 0x8, addend: 0x0, symName: __ZNSt3__18__bitsetILm1ELm16EEoRB7v160006ERKS1_, symObjAddr: 0x256C, symBinAddr: 0x100002C34, symSize: 0x2C }
  - { offsetInCU: 0x9969, offset: 0x9969, size: 0x8, addend: 0x0, symName: __ZNKSt3__19basic_iosIcNS_11char_traitsIcEEE5widenB7v160006Ec, symObjAddr: 0x2598, symBinAddr: 0x100002C60, symSize: 0x84 }
  - { offsetInCU: 0x99D5, offset: 0x99D5, size: 0x8, addend: 0x0, symName: __ZNKSt3__15ctypeIcE5widenB7v160006Ec, symObjAddr: 0x2648, symBinAddr: 0x100002D10, symSize: 0x38 }
  - { offsetInCU: 0x9A09, offset: 0x9A09, size: 0x8, addend: 0x0, symName: __ZNSt3__111char_traitsIcE6lengthEPKc, symObjAddr: 0x286C, symBinAddr: 0x100002F34, symSize: 0x34 }
  - { offsetInCU: 0x9A4A, offset: 0x9A4A, size: 0x8, addend: 0x0, symName: __ZNKSt3__113basic_ostreamIcNS_11char_traitsIcEEE6sentrycvbB7v160006Ev, symObjAddr: 0x28A0, symBinAddr: 0x100002F68, symSize: 0x1C }
  - { offsetInCU: 0x9A6D, offset: 0x9A6D, size: 0x8, addend: 0x0, symName: __ZNSt3__119ostreambuf_iteratorIcNS_11char_traitsIcEEEC1B7v160006ERNS_13basic_ostreamIcS2_EE, symObjAddr: 0x2AFC, symBinAddr: 0x1000031C4, symSize: 0x34 }
  - { offsetInCU: 0x9AA4, offset: 0x9AA4, size: 0x8, addend: 0x0, symName: __ZNKSt3__18ios_base5flagsB7v160006Ev, symObjAddr: 0x2B30, symBinAddr: 0x1000031F8, symSize: 0x18 }
  - { offsetInCU: 0x9ACA, offset: 0x9ACA, size: 0x8, addend: 0x0, symName: __ZNKSt3__19basic_iosIcNS_11char_traitsIcEEE4fillB7v160006Ev, symObjAddr: 0x2B48, symBinAddr: 0x100003210, symSize: 0x64 }
  - { offsetInCU: 0x9AF1, offset: 0x9AF1, size: 0x8, addend: 0x0, symName: __ZNKSt3__119ostreambuf_iteratorIcNS_11char_traitsIcEEE6failedB7v160006Ev, symObjAddr: 0x2BAC, symBinAddr: 0x100003274, symSize: 0x24 }
  - { offsetInCU: 0x9B14, offset: 0x9B14, size: 0x8, addend: 0x0, symName: __ZNSt3__19basic_iosIcNS_11char_traitsIcEEE8setstateB7v160006Ej, symObjAddr: 0x2BD0, symBinAddr: 0x100003298, symSize: 0x2C }
  - { offsetInCU: 0x9B48, offset: 0x9B48, size: 0x8, addend: 0x0, symName: __ZNKSt3__18ios_base5widthB7v160006Ev, symObjAddr: 0x2BFC, symBinAddr: 0x1000032C4, symSize: 0x18 }
  - { offsetInCU: 0x9B6E, offset: 0x9B6E, size: 0x8, addend: 0x0, symName: __ZNSt3__115basic_streambufIcNS_11char_traitsIcEEE5sputnB7v160006EPKcl, symObjAddr: 0x2C14, symBinAddr: 0x1000032DC, symSize: 0x3C }
  - { offsetInCU: 0x9BAE, offset: 0x9BAE, size: 0x8, addend: 0x0, symName: __ZNSt3__112basic_stringIcNS_11char_traitsIcEENS_9allocatorIcEEEC1B7v160006Emc, symObjAddr: 0x2C50, symBinAddr: 0x100003318, symSize: 0x3C }
  - { offsetInCU: 0x9BF4, offset: 0x9BF4, size: 0x8, addend: 0x0, symName: __ZNKSt3__112basic_stringIcNS_11char_traitsIcEENS_9allocatorIcEEE4dataB7v160006Ev, symObjAddr: 0x2C8C, symBinAddr: 0x100003354, symSize: 0x28 }
  - { offsetInCU: 0x9C19, offset: 0x9C19, size: 0x8, addend: 0x0, symName: __ZNSt3__18ios_base5widthB7v160006El, symObjAddr: 0x2CB4, symBinAddr: 0x10000337C, symSize: 0x2C }
  - { offsetInCU: 0x9C5D, offset: 0x9C5D, size: 0x8, addend: 0x0, symName: __ZNSt3__112basic_stringIcNS_11char_traitsIcEENS_9allocatorIcEEEC2B7v160006Emc, symObjAddr: 0x2CE0, symBinAddr: 0x1000033A8, symSize: 0x54 }
  - { offsetInCU: 0x9CA8, offset: 0x9CA8, size: 0x8, addend: 0x0, symName: __ZNSt3__117__compressed_pairINS_12basic_stringIcNS_11char_traitsIcEENS_9allocatorIcEEE5__repES5_EC1B7v160006INS_18__default_init_tagESA_EEOT_OT0_, symObjAddr: 0x2D34, symBinAddr: 0x1000033FC, symSize: 0x3C }
  - { offsetInCU: 0x9CFE, offset: 0x9CFE, size: 0x8, addend: 0x0, symName: __ZNSt3__117__compressed_pairINS_12basic_stringIcNS_11char_traitsIcEENS_9allocatorIcEEE5__repES5_EC2B7v160006INS_18__default_init_tagESA_EEOT_OT0_, symObjAddr: 0x2D80, symBinAddr: 0x100003448, symSize: 0x3C }
  - { offsetInCU: 0x9D55, offset: 0x9D55, size: 0x8, addend: 0x0, symName: __ZNSt3__122__compressed_pair_elemINS_12basic_stringIcNS_11char_traitsIcEENS_9allocatorIcEEE5__repELi0ELb0EEC2B7v160006ENS_18__default_init_tagE, symObjAddr: 0x2DBC, symBinAddr: 0x100003484, symSize: 0x14 }
  - { offsetInCU: 0x9D88, offset: 0x9D88, size: 0x8, addend: 0x0, symName: __ZNSt3__122__compressed_pair_elemINS_9allocatorIcEELi1ELb1EEC2B7v160006ENS_18__default_init_tagE, symObjAddr: 0x2DD0, symBinAddr: 0x100003498, symSize: 0x2C }
  - { offsetInCU: 0x9DBB, offset: 0x9DBB, size: 0x8, addend: 0x0, symName: __ZNSt3__19allocatorIcEC2B7v160006Ev, symObjAddr: 0x2DFC, symBinAddr: 0x1000034C4, symSize: 0x2C }
  - { offsetInCU: 0x9DE4, offset: 0x9DE4, size: 0x8, addend: 0x0, symName: __ZNSt3__116__non_trivial_ifILb1ENS_9allocatorIcEEEC2B7v160006Ev, symObjAddr: 0x2E28, symBinAddr: 0x1000034F0, symSize: 0x14 }
  - { offsetInCU: 0x9E0C, offset: 0x9E0C, size: 0x8, addend: 0x0, symName: __ZNKSt3__112basic_stringIcNS_11char_traitsIcEENS_9allocatorIcEEE13__get_pointerB7v160006Ev, symObjAddr: 0x2E50, symBinAddr: 0x100003518, symSize: 0x54 }
  - { offsetInCU: 0x9E30, offset: 0x9E30, size: 0x8, addend: 0x0, symName: __ZNKSt3__112basic_stringIcNS_11char_traitsIcEENS_9allocatorIcEEE9__is_longB7v160006Ev, symObjAddr: 0x2EA4, symBinAddr: 0x10000356C, symSize: 0x38 }
  - { offsetInCU: 0x9E54, offset: 0x9E54, size: 0x8, addend: 0x0, symName: __ZNKSt3__112basic_stringIcNS_11char_traitsIcEENS_9allocatorIcEEE18__get_long_pointerB7v160006Ev, symObjAddr: 0x2EDC, symBinAddr: 0x1000035A4, symSize: 0x28 }
  - { offsetInCU: 0x9E78, offset: 0x9E78, size: 0x8, addend: 0x0, symName: __ZNKSt3__112basic_stringIcNS_11char_traitsIcEENS_9allocatorIcEEE19__get_short_pointerB7v160006Ev, symObjAddr: 0x2F04, symBinAddr: 0x1000035CC, symSize: 0x28 }
  - { offsetInCU: 0x9E9C, offset: 0x9E9C, size: 0x8, addend: 0x0, symName: __ZNKSt3__117__compressed_pairINS_12basic_stringIcNS_11char_traitsIcEENS_9allocatorIcEEE5__repES5_E5firstB7v160006Ev, symObjAddr: 0x2F2C, symBinAddr: 0x1000035F4, symSize: 0x24 }
  - { offsetInCU: 0x9EC1, offset: 0x9EC1, size: 0x8, addend: 0x0, symName: __ZNKSt3__122__compressed_pair_elemINS_12basic_stringIcNS_11char_traitsIcEENS_9allocatorIcEEE5__repELi0ELb0EE5__getB7v160006Ev, symObjAddr: 0x2F50, symBinAddr: 0x100003618, symSize: 0x14 }
  - { offsetInCU: 0x9EE5, offset: 0x9EE5, size: 0x8, addend: 0x0, symName: __ZNSt3__114pointer_traitsIPKcE10pointer_toB7v160006ERS1_, symObjAddr: 0x2F64, symBinAddr: 0x10000362C, symSize: 0x14 }
  - { offsetInCU: 0x9F07, offset: 0x9F07, size: 0x8, addend: 0x0, symName: __ZNSt3__119ostreambuf_iteratorIcNS_11char_traitsIcEEEC2B7v160006ERNS_13basic_ostreamIcS2_EE, symObjAddr: 0x2F78, symBinAddr: 0x100003640, symSize: 0x54 }
  - { offsetInCU: 0x9F3D, offset: 0x9F3D, size: 0x8, addend: 0x0, symName: __ZNKSt3__19basic_iosIcNS_11char_traitsIcEEE5rdbufB7v160006Ev, symObjAddr: 0x2FCC, symBinAddr: 0x100003694, symSize: 0x24 }
  - { offsetInCU: 0x9F64, offset: 0x9F64, size: 0x8, addend: 0x0, symName: __ZNKSt3__18ios_base5rdbufB7v160006Ev, symObjAddr: 0x2FF0, symBinAddr: 0x1000036B8, symSize: 0x18 }
  - { offsetInCU: 0x9F88, offset: 0x9F88, size: 0x8, addend: 0x0, symName: __ZNSt3__111char_traitsIcE11eq_int_typeEii, symObjAddr: 0x3008, symBinAddr: 0x1000036D0, symSize: 0x28 }
  - { offsetInCU: 0x9FB9, offset: 0x9FB9, size: 0x8, addend: 0x0, symName: __ZNSt3__111char_traitsIcE3eofEv, symObjAddr: 0x3030, symBinAddr: 0x1000036F8, symSize: 0x8 }
  - { offsetInCU: 0x9FCC, offset: 0x9FCC, size: 0x8, addend: 0x0, symName: __ZNSt3__18ios_base8setstateB7v160006Ej, symObjAddr: 0x3038, symBinAddr: 0x100003700, symSize: 0x34 }
  - { offsetInCU: 0xA001, offset: 0xA001, size: 0x8, addend: 0x0, symName: __ZNKSt3__16bitsetILm16EE9to_stringB7v160006IcNS_11char_traitsIcEEEENS_12basic_stringIT_T0_NS_9allocatorIS6_EEEES6_S6_, symObjAddr: 0x30DC, symBinAddr: 0x1000037A4, symSize: 0x3C }
  - { offsetInCU: 0xA057, offset: 0xA057, size: 0x8, addend: 0x0, symName: __ZNKSt3__112basic_stringIcNS_11char_traitsIcEENS_9allocatorIcEEE4sizeB7v160006Ev, symObjAddr: 0x3118, symBinAddr: 0x1000037E0, symSize: 0x54 }
  - { offsetInCU: 0xA07B, offset: 0xA07B, size: 0x8, addend: 0x0, symName: __ZNKSt3__112basic_stringIcNS_11char_traitsIcEENS_9allocatorIcEEE15__get_long_sizeB7v160006Ev, symObjAddr: 0x316C, symBinAddr: 0x100003834, symSize: 0x28 }
  - { offsetInCU: 0xA09F, offset: 0xA09F, size: 0x8, addend: 0x0, symName: __ZNKSt3__112basic_stringIcNS_11char_traitsIcEENS_9allocatorIcEEE16__get_short_sizeB7v160006Ev, symObjAddr: 0x3194, symBinAddr: 0x10000385C, symSize: 0x34 }
  - { offsetInCU: 0xA0C3, offset: 0xA0C3, size: 0x8, addend: 0x0, symName: __ZNKSt3__16bitsetILm16EE9to_stringB7v160006IcNS_11char_traitsIcEENS_9allocatorIcEEEENS_12basic_stringIT_T0_T1_EES8_S8_, symObjAddr: 0x31C8, symBinAddr: 0x100003890, symSize: 0x138 }
  - { offsetInCU: 0xA147, offset: 0xA147, size: 0x8, addend: 0x0, symName: __ZNKSt3__16bitsetILm16EEixB7v160006Em, symObjAddr: 0x3300, symBinAddr: 0x1000039C8, symSize: 0x3C }
  - { offsetInCU: 0xA17B, offset: 0xA17B, size: 0x8, addend: 0x0, symName: __ZNKSt3__121__bit_const_referenceINS_8__bitsetILm1ELm16EEEEcvbB7v160006Ev, symObjAddr: 0x333C, symBinAddr: 0x100003A04, symSize: 0x2C }
  - { offsetInCU: 0xA19E, offset: 0xA19E, size: 0x8, addend: 0x0, symName: __ZNSt3__112basic_stringIcNS_11char_traitsIcEENS_9allocatorIcEEEixB7v160006Em, symObjAddr: 0x3368, symBinAddr: 0x100003A30, symSize: 0x30 }
  - { offsetInCU: 0xA1D1, offset: 0xA1D1, size: 0x8, addend: 0x0, symName: __ZNKSt3__18__bitsetILm1ELm16EE10__make_refB7v160006Em, symObjAddr: 0x3398, symBinAddr: 0x100003A60, symSize: 0x40 }
  - { offsetInCU: 0xA204, offset: 0xA204, size: 0x8, addend: 0x0, symName: __ZNSt3__121__bit_const_referenceINS_8__bitsetILm1ELm16EEEEC1B7v160006EPKmm, symObjAddr: 0x33D8, symBinAddr: 0x100003AA0, symSize: 0x3C }
  - { offsetInCU: 0xA249, offset: 0xA249, size: 0x8, addend: 0x0, symName: __ZNSt3__121__bit_const_referenceINS_8__bitsetILm1ELm16EEEEC2B7v160006EPKmm, symObjAddr: 0x3414, symBinAddr: 0x100003ADC, symSize: 0x2C }
  - { offsetInCU: 0xA28D, offset: 0xA28D, size: 0x8, addend: 0x0, symName: __ZNSt3__112basic_stringIcNS_11char_traitsIcEENS_9allocatorIcEEE13__get_pointerB7v160006Ev, symObjAddr: 0x3440, symBinAddr: 0x100003B08, symSize: 0x54 }
  - { offsetInCU: 0xA2B1, offset: 0xA2B1, size: 0x8, addend: 0x0, symName: __ZNSt3__112basic_stringIcNS_11char_traitsIcEENS_9allocatorIcEEE18__get_long_pointerB7v160006Ev, symObjAddr: 0x3494, symBinAddr: 0x100003B5C, symSize: 0x28 }
  - { offsetInCU: 0xA2D5, offset: 0xA2D5, size: 0x8, addend: 0x0, symName: __ZNSt3__112basic_stringIcNS_11char_traitsIcEENS_9allocatorIcEEE19__get_short_pointerB7v160006Ev, symObjAddr: 0x34BC, symBinAddr: 0x100003B84, symSize: 0x28 }
  - { offsetInCU: 0xA2F9, offset: 0xA2F9, size: 0x8, addend: 0x0, symName: __ZNSt3__117__compressed_pairINS_12basic_stringIcNS_11char_traitsIcEENS_9allocatorIcEEE5__repES5_E5firstB7v160006Ev, symObjAddr: 0x34E4, symBinAddr: 0x100003BAC, symSize: 0x24 }
  - { offsetInCU: 0xA31E, offset: 0xA31E, size: 0x8, addend: 0x0, symName: __ZNSt3__122__compressed_pair_elemINS_12basic_stringIcNS_11char_traitsIcEENS_9allocatorIcEEE5__repELi0ELb0EE5__getB7v160006Ev, symObjAddr: 0x3508, symBinAddr: 0x100003BD0, symSize: 0x14 }
  - { offsetInCU: 0xA342, offset: 0xA342, size: 0x8, addend: 0x0, symName: __ZNSt3__114pointer_traitsIPcE10pointer_toB7v160006ERc, symObjAddr: 0x351C, symBinAddr: 0x100003BE4, symSize: 0x14 }
...
